; Function Attrs: mustprogress nounwind uwtable
define dso_local void @_ZN4llvm3sys7Process11getPageSizeEv(ptr dead_on_unwind noalias nocapture writable sret(%"class.llvm::Expected") align 8 %0) local_unnamed_addr #0 align 2 {
  %2 = alloca %"class.llvm::Error", align 8
  %3 = load atomic i8, ptr @_ZGVZN4llvm3sys7Process11getPageSizeEvE9page_size acquire, align 8
  %4 = icmp eq i8 %3, 0
  br i1 %4, label %5, label %9, !prof !12

5:                                                ; preds = %1
  %6 = tail call i32 @__cxa_guard_acquire(ptr nonnull @_ZGVZN4llvm3sys7Process11getPageSizeEvE9page_size) #22
  %.not = icmp eq i32 %6, 0
  br i1 %.not, label %9, label %7

7:                                                ; preds = %5
  %8 = tail call i32 @getpagesize() #25
  store i32 %8, ptr @_ZZN4llvm3sys7Process11getPageSizeEvE9page_size, align 4
  tail call void @__cxa_guard_release(ptr nonnull @_ZGVZN4llvm3sys7Process11getPageSizeEvE9page_size) #22
  br label %9

9:                                                ; preds = %7, %5, %1
  %10 = load i32, ptr @_ZZN4llvm3sys7Process11getPageSizeEvE9page_size, align 4
  %11 = icmp eq i32 %10, -1
  br i1 %11, label %_ZN4llvm5ErrorD2Ev.exit, label %19

_ZN4llvm5ErrorD2Ev.exit:                          ; preds = %9
  %12 = tail call ptr @__errno_location() #25
  %13 = load i32, ptr %12, align 4
  %14 = tail call noundef nonnull align 8 dereferenceable(8) ptr @_ZNSt3_V216generic_categoryEv() #25
  call void @_ZN4llvm16errorCodeToErrorESt10error_code(ptr dead_on_unwind nonnull writable sret(%"class.llvm::Error") align 8 %2, i32 %13, ptr nonnull %14) #22
  %15 = getelementptr inbounds nuw i8, ptr %0, i64 8
  %16 = load i8, ptr %15, align 8
  %17 = or i8 %16, 1
  store i8 %17, ptr %15, align 8
  call void @llvm.experimental.noalias.scope.decl(metadata !13)
  %18 = load ptr, ptr %2, align 8, !noalias !13
  store ptr %18, ptr %0, align 8, !alias.scope !13
  br label %23

19:                                               ; preds = %9
  %20 = getelementptr inbounds nuw i8, ptr %0, i64 8
  %21 = load i8, ptr %20, align 8
  %22 = and i8 %21, -2
  store i8 %22, ptr %20, align 8
  store i32 %10, ptr %0, align 8
  br label %23

23:                                               ; preds = %19, %_ZN4llvm5ErrorD2Ev.exit
  ret void
}